; Function Attrs: mustprogress nofree norecurse nosync nounwind memory(readwrite, inaccessiblemem: none) uwtable
define hidden void @_ZN9Arguments16PropertyList_addEP14SystemProperty(ptr noundef %0) local_unnamed_addr #7 align 2 {
  %2 = load ptr, ptr @_ZN9Arguments18_system_propertiesE, align 8
  %3 = icmp eq ptr %2, null
  br i1 %3, label %_ZN9Arguments16PropertyList_addEPP14SystemPropertyS1_.exit, label %.preheader.i

.preheader.i:                                     ; preds = %1, %.preheader.i
  %.0.i = phi ptr [ %5, %.preheader.i ], [ %2, %1 ]
  %4 = getelementptr inbounds i8, ptr %.0.i, i64 16
  %5 = load ptr, ptr %4, align 8
  %.not.i = icmp eq ptr %5, null
  br i1 %.not.i, label %_ZN9Arguments16PropertyList_addEPP14SystemPropertyS1_.exit.loopexit, label %.preheader.i, !llvm.loop !8

_ZN9Arguments16PropertyList_addEPP14SystemPropertyS1_.exit.loopexit: ; preds = %.preheader.i
  %6 = getelementptr inbounds i8, ptr %.0.i, i64 16
  br label %_ZN9Arguments16PropertyList_addEPP14SystemPropertyS1_.exit

_ZN9Arguments16PropertyList_addEPP14SystemPropertyS1_.exit: ; preds = %_ZN9Arguments16PropertyList_addEPP14SystemPropertyS1_.exit.loopexit, %1
  %.sink.i = phi ptr [ @_ZN9Arguments18_system_propertiesE, %1 ], [ %6, %_ZN9Arguments16PropertyList_addEPP14SystemPropertyS1_.exit.loopexit ]
  store ptr %0, ptr %.sink.i, align 8
  ret void
}